target datalayout = "e-m:e-p270:32:32-p271:32:32-p272:64:64-i64:64-i128:128-f80:128-n8:16:32:64-S128"
target triple = "x86_64-pc-linux-gnu"

; Function Attrs: nounwind uwtable
define internal i32 @mbedtls_cipher_validate_values(i32 noundef %0, i16 noundef zeroext %1) #0 {
  %3 = alloca i32, align 4
  %4 = alloca i32, align 4
  %5 = alloca i16, align 2
  store i32 %0, ptr %4, align 4, !tbaa !3
  store i16 %1, ptr %5, align 2, !tbaa !7
  %6 = load i32, ptr %4, align 4, !tbaa !3
  %7 = icmp ne i32 %6, 71368448
  call void @llvm.assume(i1 %7)
  %8 = load i32, ptr %4, align 4, !tbaa !3
  %9 = icmp eq i32 %8, 75497728
  br i1 %9, label %13, label %10

10:                                               ; preds = %2
  %11 = load i32, ptr %4, align 4, !tbaa !3
  %12 = icmp eq i32 %11, 83887360
  br i1 %12, label %13, label %19

13:                                               ; preds = %10, %2
  %14 = load i16, ptr %5, align 2, !tbaa !7
  %15 = zext i16 %14 to i32
  %16 = icmp eq i32 %15, 8196
  br i1 %16, label %17, label %18

17:                                               ; preds = %13
  store i32 0, ptr %3, align 4
  br label %85

18:                                               ; preds = %13
  br label %19

19:                                               ; preds = %18, %10
  %20 = load i32, ptr %4, align 4, !tbaa !3
  %21 = icmp eq i32 %20, 88080640
  br i1 %21, label %28, label %22

22:                                               ; preds = %19
  %23 = load i32, ptr %4, align 4, !tbaa !3
  %24 = icmp eq i32 %23, 88080896
  br i1 %24, label %28, label %25

25:                                               ; preds = %22
  %26 = load i32, ptr %4, align 4, !tbaa !3
  %27 = icmp eq i32 %26, 79696640
  br i1 %27, label %28, label %42

28:                                               ; preds = %25, %22, %19
  %29 = load i16, ptr %5, align 2, !tbaa !7
  %30 = zext i16 %29 to i32
  %31 = icmp eq i32 %30, 9216
  br i1 %31, label %40, label %32

32:                                               ; preds = %28
  %33 = load i16, ptr %5, align 2, !tbaa !7
  %34 = zext i16 %33 to i32
  %35 = icmp eq i32 %34, 9222
  br i1 %35, label %40, label %36

36:                                               ; preds = %32
  %37 = load i16, ptr %5, align 2, !tbaa !7
  %38 = zext i16 %37 to i32
  %39 = icmp eq i32 %38, 9219
  br i1 %39, label %40, label %41

40:                                               ; preds = %36, %32, %28
  store i32 0, ptr %3, align 4
  br label %85

41:                                               ; preds = %36
  br label %42

42:                                               ; preds = %41, %25
  %43 = load i32, ptr %4, align 4, !tbaa !3
  %44 = icmp eq i32 %43, 79695872
  br i1 %44, label %66, label %45

45:                                               ; preds = %42
  %46 = load i32, ptr %4, align 4, !tbaa !3
  %47 = icmp eq i32 %46, 79696128
  br i1 %47, label %66, label %48

48:                                               ; preds = %45
  %49 = load i32, ptr %4, align 4, !tbaa !3
  %50 = icmp eq i32 %49, 79696384
  br i1 %50, label %66, label %51

51:                                               ; preds = %48
  %52 = load i32, ptr %4, align 4, !tbaa !3
  %53 = icmp eq i32 %52, 71368448
  br i1 %53, label %66, label %54

54:                                               ; preds = %51
  %55 = load i32, ptr %4, align 4, !tbaa !3
  %56 = icmp eq i32 %55, 71320576
  br i1 %56, label %66, label %57

57:                                               ; preds = %54
  %58 = load i32, ptr %4, align 4, !tbaa !3
  %59 = icmp eq i32 %58, 71319552
  br i1 %59, label %66, label %60

60:                                               ; preds = %57
  %61 = load i32, ptr %4, align 4, !tbaa !3
  %62 = icmp eq i32 %61, 71319808
  br i1 %62, label %66, label %63

63:                                               ; preds = %60
  %64 = load i32, ptr %4, align 4, !tbaa !3
  %65 = icmp eq i32 %64, 62915072
  br i1 %65, label %66, label %84

66:                                               ; preds = %63, %60, %57, %54, %51, %48, %45, %42
  %67 = load i16, ptr %5, align 2, !tbaa !7
  %68 = zext i16 %67 to i32
  %69 = icmp eq i32 %68, 9216
  br i1 %69, label %82, label %70

70:                                               ; preds = %66
  %71 = load i16, ptr %5, align 2, !tbaa !7
  %72 = zext i16 %71 to i32
  %73 = icmp eq i32 %72, 9222
  br i1 %73, label %82, label %74

74:                                               ; preds = %70
  %75 = load i16, ptr %5, align 2, !tbaa !7
  %76 = zext i16 %75 to i32
  %77 = icmp eq i32 %76, 8961
  br i1 %77, label %82, label %78

78:                                               ; preds = %74
  %79 = load i16, ptr %5, align 2, !tbaa !7
  %80 = zext i16 %79 to i32
  %81 = icmp eq i32 %80, 9219
  br i1 %81, label %82, label %83

82:                                               ; preds = %78, %74, %70, %66
  store i32 0, ptr %3, align 4
  br label %85

83:                                               ; preds = %78
  br label %84

84:                                               ; preds = %83, %63
  store i32 -134, ptr %3, align 4
  br label %85

85:                                               ; preds = %84, %82, %40, %17
  %86 = load i32, ptr %3, align 4
  ret i32 %86
}

; Function Attrs: nounwind uwtable
define hidden i32 @mbedtls_cipher_values_from_psa(i32 noundef %0, i16 noundef zeroext %1, ptr noundef %2, ptr noundef %3, ptr noundef %4) #0 {
  %6 = alloca i32, align 4
  %7 = alloca i32, align 4
  %8 = alloca i16, align 2
  %9 = alloca ptr, align 8
  %10 = alloca ptr, align 8
  %11 = alloca ptr, align 8
  %12 = alloca i32, align 4
  %13 = alloca i32, align 4
  store i32 %0, ptr %7, align 4, !tbaa !3
  store i16 %1, ptr %8, align 2, !tbaa !7
  store ptr %2, ptr %9, align 8, !tbaa !9
  store ptr %3, ptr %10, align 8, !tbaa !12
  store ptr %4, ptr %11, align 8, !tbaa !12
  call void @llvm.lifetime.start.p0(i64 4, ptr %12) #7
  %14 = load i32, ptr %7, align 4, !tbaa !3
  %15 = and i32 %14, 2130706432
  %16 = icmp eq i32 %15, 83886080
  br i1 %16, label %17, label %21

17:                                               ; preds = %5
  %18 = load i32, ptr %7, align 4, !tbaa !3
  %19 = and i32 %18, -4161537
  %20 = or i32 %19, 0
  store i32 %20, ptr %7, align 4, !tbaa !3
  br label %21

21:                                               ; preds = %17, %5
  %22 = load i32, ptr %7, align 4, !tbaa !3
  %23 = and i32 %22, 2130706432
  %24 = icmp eq i32 %23, 67108864
  br i1 %24, label %29, label %25

25:                                               ; preds = %21
  %26 = load i32, ptr %7, align 4, !tbaa !3
  %27 = and i32 %26, 2130706432
  %28 = icmp eq i32 %27, 83886080
  br i1 %28, label %29, label %55

29:                                               ; preds = %25, %21
  %30 = load i32, ptr %7, align 4, !tbaa !3
  switch i32 %30, label %53 [
    i32 75497728, label %31
    i32 79695872, label %33
    i32 79696128, label %35
    i32 79696384, label %37
    i32 71320576, label %39
    i32 71319552, label %41
    i32 71319808, label %43
    i32 79696640, label %45
    i32 88080640, label %47
    i32 88080896, label %49
    i32 83887360, label %51
  ]

31:                                               ; preds = %29
  %32 = load ptr, ptr %10, align 8, !tbaa !12
  store i32 7, ptr %32, align 4, !tbaa !3
  br label %54

33:                                               ; preds = %29
  %34 = load ptr, ptr %10, align 8, !tbaa !12
  store i32 5, ptr %34, align 4, !tbaa !3
  br label %54

35:                                               ; preds = %29
  %36 = load ptr, ptr %10, align 8, !tbaa !12
  store i32 3, ptr %36, align 4, !tbaa !3
  br label %54

37:                                               ; preds = %29
  %38 = load ptr, ptr %10, align 8, !tbaa !12
  store i32 4, ptr %38, align 4, !tbaa !3
  br label %54

39:                                               ; preds = %29
  %40 = load ptr, ptr %10, align 8, !tbaa !12
  store i32 1, ptr %40, align 4, !tbaa !3
  br label %54

41:                                               ; preds = %29
  %42 = load ptr, ptr %10, align 8, !tbaa !12
  store i32 2, ptr %42, align 4, !tbaa !3
  br label %54

43:                                               ; preds = %29
  %44 = load ptr, ptr %10, align 8, !tbaa !12
  store i32 2, ptr %44, align 4, !tbaa !3
  br label %54

45:                                               ; preds = %29
  %46 = load ptr, ptr %10, align 8, !tbaa !12
  store i32 9, ptr %46, align 4, !tbaa !3
  br label %54

47:                                               ; preds = %29
  %48 = load ptr, ptr %10, align 8, !tbaa !12
  store i32 8, ptr %48, align 4, !tbaa !3
  br label %54

49:                                               ; preds = %29
  %50 = load ptr, ptr %10, align 8, !tbaa !12
  store i32 6, ptr %50, align 4, !tbaa !3
  br label %54

51:                                               ; preds = %29
  %52 = load ptr, ptr %10, align 8, !tbaa !12
  store i32 11, ptr %52, align 4, !tbaa !3
  br label %54

53:                                               ; preds = %29
  store i32 -134, ptr %6, align 4
  store i32 1, ptr %13, align 4
  br label %93

54:                                               ; preds = %51, %49, %47, %45, %43, %41, %39, %37, %35, %33, %31
  br label %62

55:                                               ; preds = %25
  %56 = load i32, ptr %7, align 4, !tbaa !3
  %57 = icmp eq i32 %56, 62915072
  br i1 %57, label %58, label %60

58:                                               ; preds = %55
  %59 = load ptr, ptr %10, align 8, !tbaa !12
  store i32 1, ptr %59, align 4, !tbaa !3
  br label %61

60:                                               ; preds = %55
  store i32 -134, ptr %6, align 4
  store i32 1, ptr %13, align 4
  br label %93

61:                                               ; preds = %58
  br label %62

62:                                               ; preds = %61, %54
  %63 = load i16, ptr %8, align 2, !tbaa !7
  %64 = zext i16 %63 to i32
  switch i32 %64, label %82 [
    i32 9216, label %65
    i32 9222, label %66
    i32 8961, label %67
    i32 9219, label %80
    i32 8196, label %81
  ]

65:                                               ; preds = %62
  store i32 2, ptr %12, align 4, !tbaa !3
  br label %83

66:                                               ; preds = %62
  store i32 6, ptr %12, align 4, !tbaa !3
  br label %83

67:                                               ; preds = %62
  %68 = load ptr, ptr %9, align 8, !tbaa !9
  %69 = load i64, ptr %68, align 8, !tbaa !13
  %70 = icmp eq i64 %69, 64
  br i1 %70, label %71, label %72

71:                                               ; preds = %67
  store i32 3, ptr %12, align 4, !tbaa !3
  br label %73

72:                                               ; preds = %67
  store i32 4, ptr %12, align 4, !tbaa !3
  br label %73

73:                                               ; preds = %72, %71
  %74 = load ptr, ptr %9, align 8, !tbaa !9
  %75 = load i64, ptr %74, align 8, !tbaa !13
  %76 = icmp eq i64 %75, 128
  br i1 %76, label %77, label %79

77:                                               ; preds = %73
  %78 = load ptr, ptr %9, align 8, !tbaa !9
  store i64 192, ptr %78, align 8, !tbaa !13
  br label %79

79:                                               ; preds = %77, %73
  br label %83

80:                                               ; preds = %62
  store i32 5, ptr %12, align 4, !tbaa !3
  br label %83

81:                                               ; preds = %62
  store i32 7, ptr %12, align 4, !tbaa !3
  br label %83

82:                                               ; preds = %62
  store i32 -134, ptr %6, align 4
  store i32 1, ptr %13, align 4
  br label %93

83:                                               ; preds = %81, %80, %79, %66, %65
  %84 = load ptr, ptr %11, align 8, !tbaa !12
  %85 = icmp ne ptr %84, null
  br i1 %85, label %86, label %89

86:                                               ; preds = %83
  %87 = load i32, ptr %12, align 4, !tbaa !3
  %88 = load ptr, ptr %11, align 8, !tbaa !12
  store i32 %87, ptr %88, align 4, !tbaa !3
  br label %89

89:                                               ; preds = %86, %83
  %90 = load i32, ptr %7, align 4, !tbaa !3
  %91 = load i16, ptr %8, align 2, !tbaa !7
  %92 = call i32 @mbedtls_cipher_validate_values(i32 noundef %90, i16 noundef zeroext %91)
  store i32 %92, ptr %6, align 4
  store i32 1, ptr %13, align 4
  br label %93

93:                                               ; preds = %89, %82, %60, %53
  call void @llvm.lifetime.end.p0(i64 4, ptr %12) #7
  %94 = load i32, ptr %6, align 4
  ret i32 %94
}