; Function Attrs: mustprogress nofree norecurse nosync nounwind willreturn memory(argmem: readwrite, inaccessiblemem: write) uwtable
define hidden range(i32 -134, 1) i32 @mbedtls_cipher_values_from_psa(i32 noundef %0, i16 noundef zeroext %1, ptr noundef captures(none) %2, ptr noundef writeonly captures(none) %3, ptr noundef writeonly %4) local_unnamed_addr #0 {
  %6 = and i32 %0, 2130706432
  %7 = icmp eq i32 %6, 83886080
  %8 = and i32 %0, -2050981889
  %spec.select = select i1 %7, i32 %8, i32 %0
  %9 = and i32 %spec.select, 2130706432
  switch i32 %9, label %20 [
    i32 67108864, label %10
    i32 83886080, label %10
  ]

10:                                               ; preds = %5, %5
  switch i32 %spec.select, label %mbedtls_cipher_validate_values.exit [
    i32 75497728, label %22
    i32 79695872, label %11
    i32 79696128, label %12
    i32 79696384, label %13
    i32 71320576, label %14
    i32 71319552, label %15
    i32 71319808, label %15
    i32 79696640, label %16
    i32 88080640, label %17
    i32 88080896, label %18
    i32 83887360, label %19
  ]

11:                                               ; preds = %10
  br label %22

12:                                               ; preds = %10
  br label %22

13:                                               ; preds = %10
  br label %22

14:                                               ; preds = %10
  br label %22

15:                                               ; preds = %10, %10
  br label %22

16:                                               ; preds = %10
  br label %22

17:                                               ; preds = %10
  br label %22

18:                                               ; preds = %10
  br label %22

19:                                               ; preds = %10
  br label %22

20:                                               ; preds = %5
  %21 = icmp eq i32 %spec.select, 62915072
  br i1 %21, label %22, label %mbedtls_cipher_validate_values.exit

22:                                               ; preds = %20, %10, %11, %12, %13, %14, %15, %16, %17, %18, %19
  %.sink = phi i32 [ 5, %11 ], [ 3, %12 ], [ 4, %13 ], [ 1, %14 ], [ 2, %15 ], [ 9, %16 ], [ 8, %17 ], [ 6, %18 ], [ 11, %19 ], [ 7, %10 ], [ 1, %20 ]
  store i32 %.sink, ptr %3, align 4, !tbaa !3
  switch i16 %1, label %mbedtls_cipher_validate_values.exit [
    i16 9216, label %31
    i16 9222, label %23
    i16 8961, label %24
    i16 9219, label %29
    i16 8196, label %30
  ]

23:                                               ; preds = %22
  br label %31

24:                                               ; preds = %22
  %25 = load i64, ptr %2, align 8, !tbaa !7
  %26 = icmp eq i64 %25, 64
  %. = select i1 %26, i32 3, i32 4
  %27 = icmp eq i64 %25, 128
  br i1 %27, label %28, label %31

28:                                               ; preds = %24
  store i64 192, ptr %2, align 8, !tbaa !7
  br label %31

29:                                               ; preds = %22
  br label %31

30:                                               ; preds = %22
  br label %31

31:                                               ; preds = %22, %24, %28, %30, %29, %23
  %.0 = phi i32 [ 7, %30 ], [ 5, %29 ], [ %., %28 ], [ %., %24 ], [ 6, %23 ], [ 2, %22 ]
  %.not = icmp eq ptr %4, null
  br i1 %.not, label %33, label %32

32:                                               ; preds = %31
  store i32 %.0, ptr %4, align 4, !tbaa !3
  br label %33

33:                                               ; preds = %32, %31
  %34 = icmp ne i32 %spec.select, 71368448
  tail call void @llvm.assume(i1 %34)
  %35 = icmp eq i32 %spec.select, 75497728
  %36 = icmp eq i32 %spec.select, 83887360
  %or.cond.i = or i1 %35, %36
  %37 = icmp eq i16 %1, 8196
  %or.cond37.i = and i1 %37, %or.cond.i
  br i1 %or.cond37.i, label %mbedtls_cipher_validate_values.exit, label %38

38:                                               ; preds = %33
  switch i32 %spec.select, label %42 [
    i32 88080896, label %39
    i32 88080640, label %39
    i32 79696640, label %39
    i32 79696384, label %41
    i32 79696128, label %41
    i32 79695872, label %41
    i32 71320576, label %41
    i32 71319808, label %41
    i32 71319552, label %41
    i32 62915072, label %41
  ]

39:                                               ; preds = %38, %38, %38
  %switch.tableidx = add i16 %1, -9216
  %40 = icmp ult i16 %switch.tableidx, 7
  br i1 %40, label %switch.lookup, label %42

41:                                               ; preds = %38, %38, %38, %38, %38, %38, %38
  switch i16 %1, label %42 [
    i16 9222, label %mbedtls_cipher_validate_values.exit
    i16 9219, label %mbedtls_cipher_validate_values.exit
    i16 9216, label %mbedtls_cipher_validate_values.exit
    i16 8961, label %mbedtls_cipher_validate_values.exit
  ]

42:                                               ; preds = %39, %41, %38
  br label %mbedtls_cipher_validate_values.exit

switch.lookup:                                    ; preds = %39
  %43 = zext nneg i16 %switch.tableidx to i64
  %switch.gep = getelementptr inbounds nuw [7 x i32], ptr @switch.table.mbedtls_cipher_values_from_psa, i64 0, i64 %43
  %switch.load = load i32, ptr %switch.gep, align 4
  br label %mbedtls_cipher_validate_values.exit

mbedtls_cipher_validate_values.exit:              ; preds = %switch.lookup, %42, %41, %41, %41, %41, %33, %22, %20, %10
  %.027 = phi i32 [ -134, %10 ], [ -134, %20 ], [ -134, %22 ], [ -134, %42 ], [ 0, %33 ], [ 0, %41 ], [ 0, %41 ], [ 0, %41 ], [ 0, %41 ], [ %switch.load, %switch.lookup ]
  ret i32 %.027
}